; Function Attrs: mustprogress uwtable
define noundef zeroext i1 @_ZNK22ExportObjectProxyModel8lessThanERK11QModelIndexS2_(ptr noundef nonnull align 8 dereferenceable(64) %0, ptr noundef nonnull align 8 dereferenceable(24) %1, ptr noundef nonnull align 8 dereferenceable(24) %2) unnamed_addr #0 align 2 personality ptr @__gxx_personality_v0 {
  %4 = alloca %class.QVariant, align 8
  %5 = alloca %class.QVariant, align 8
  %6 = tail call noundef ptr @_ZNK19QAbstractProxyModel11sourceModelEv(ptr noundef nonnull align 8 dereferenceable(16) %0)
  %7 = load ptr, ptr %6, align 8
  %8 = getelementptr inbounds i8, ptr %7, i64 144
  %9 = load ptr, ptr %8, align 8
  call void %9(ptr dead_on_unwind nonnull writable sret(%class.QVariant) align 8 %4, ptr noundef nonnull align 8 dereferenceable(16) %6, ptr noundef nonnull align 8 dereferenceable(24) %1, i32 noundef 256)
  %10 = invoke noundef ptr @_Z13qvariant_castIPvET_RK8QVariant(ptr noundef nonnull align 8 dereferenceable(32) %4)
          to label %_ZN14VariantPointerI22_export_object_entry_tE5asPtrE8QVariant.exit unwind label %21

_ZN14VariantPointerI22_export_object_entry_tE5asPtrE8QVariant.exit: ; preds = %3
  call void @_ZN8QVariantD1Ev(ptr noundef nonnull align 8 dereferenceable(32) %4) #18
  %11 = call noundef ptr @_ZNK19QAbstractProxyModel11sourceModelEv(ptr noundef nonnull align 8 dereferenceable(16) %0)
  %12 = load ptr, ptr %11, align 8
  %13 = getelementptr inbounds i8, ptr %12, i64 144
  %14 = load ptr, ptr %13, align 8
  call void %14(ptr dead_on_unwind nonnull writable sret(%class.QVariant) align 8 %5, ptr noundef nonnull align 8 dereferenceable(16) %11, ptr noundef nonnull align 8 dereferenceable(24) %2, i32 noundef 256)
  %15 = invoke noundef ptr @_Z13qvariant_castIPvET_RK8QVariant(ptr noundef nonnull align 8 dereferenceable(32) %5)
          to label %_ZN14VariantPointerI22_export_object_entry_tE5asPtrE8QVariant.exit20 unwind label %23

_ZN14VariantPointerI22_export_object_entry_tE5asPtrE8QVariant.exit20: ; preds = %_ZN14VariantPointerI22_export_object_entry_tE5asPtrE8QVariant.exit
  call void @_ZN8QVariantD1Ev(ptr noundef nonnull align 8 dereferenceable(32) %5) #18
  %16 = icmp ne ptr %10, null
  %17 = icmp ne ptr %15, null
  %or.cond = and i1 %16, %17
  br i1 %or.cond, label %18, label %35

18:                                               ; preds = %_ZN14VariantPointerI22_export_object_entry_tE5asPtrE8QVariant.exit20
  %19 = getelementptr inbounds i8, ptr %1, i64 4
  %20 = load i32, ptr %19, align 4
  switch i32 %20, label %35 [
    i32 0, label %25
    i32 3, label %29
  ]

21:                                               ; preds = %3
  %22 = landingpad { ptr, i32 }
          cleanup
  br label %38

23:                                               ; preds = %_ZN14VariantPointerI22_export_object_entry_tE5asPtrE8QVariant.exit
  %24 = landingpad { ptr, i32 }
          cleanup
  br label %38

25:                                               ; preds = %18
  %26 = load i32, ptr %10, align 8
  %27 = load i32, ptr %15, align 8
  %28 = icmp ult i32 %26, %27
  br label %37

29:                                               ; preds = %18
  %30 = getelementptr inbounds i8, ptr %10, i64 32
  %31 = load i64, ptr %30, align 8
  %32 = getelementptr inbounds i8, ptr %15, i64 32
  %33 = load i64, ptr %32, align 8
  %34 = icmp ult i64 %31, %33
  br label %37

35:                                               ; preds = %18, %_ZN14VariantPointerI22_export_object_entry_tE5asPtrE8QVariant.exit20
  %36 = call noundef zeroext i1 @_ZNK21QSortFilterProxyModel8lessThanERK11QModelIndexS2_(ptr noundef nonnull align 8 dereferenceable(16) %0, ptr noundef nonnull align 8 dereferenceable(24) %1, ptr noundef nonnull align 8 dereferenceable(24) %2)
  br label %37

37:                                               ; preds = %35, %29, %25
  %.0 = phi i1 [ %36, %35 ], [ %34, %29 ], [ %28, %25 ]
  ret i1 %.0

38:                                               ; preds = %23, %21
  %.sink = phi ptr [ %5, %23 ], [ %4, %21 ]
  %.pn = phi { ptr, i32 } [ %24, %23 ], [ %22, %21 ]
  call void @_ZN8QVariantD1Ev(ptr noundef nonnull align 8 dereferenceable(32) %.sink) #18
  resume { ptr, i32 } %.pn
}